; Function Attrs: mustprogress uwtable
define hidden void @_ZN2dd6solver9superposeERKNS0_8equationE(ptr noundef nonnull align 8 dereferenceable(208) %this, ptr noundef nonnull align 8 dereferenceable(32) %eq) local_unnamed_addr #5 align 2 {
entry:
  %m_processed = getelementptr inbounds i8, ptr %this, i64 144
  %0 = load ptr, ptr %m_processed, align 8
  %cmp.i.i = icmp eq ptr %0, null
  br i1 %cmp.i.i, label %for.end, label %_ZN6vectorIPN2dd6solver8equationELb0EjE3endEv.exit

_ZN6vectorIPN2dd6solver8equationELb0EjE3endEv.exit: ; preds = %entry
  %arrayidx.i.i = getelementptr inbounds i8, ptr %0, i64 -4
  %1 = load i32, ptr %arrayidx.i.i, align 4
  %2 = zext i32 %1 to i64
  %add.ptr.i = getelementptr inbounds ptr, ptr %0, i64 %2
  %cmp.not4 = icmp eq i32 %1, 0
  br i1 %cmp.not4, label %for.end, label %for.body

for.body:                                         ; preds = %_ZN6vectorIPN2dd6solver8equationELb0EjE3endEv.exit, %for.body
  %__begin1.05 = phi ptr [ %incdec.ptr, %for.body ], [ %0, %_ZN6vectorIPN2dd6solver8equationELb0EjE3endEv.exit ]
  %3 = load ptr, ptr %__begin1.05, align 8
  tail call void @_ZN2dd6solver9superposeERKNS0_8equationES3_(ptr noundef nonnull align 8 dereferenceable(208) %this, ptr noundef nonnull align 8 dereferenceable(32) %eq, ptr noundef nonnull align 8 dereferenceable(32) %3)
  %incdec.ptr = getelementptr inbounds i8, ptr %__begin1.05, i64 8
  %cmp.not = icmp eq ptr %incdec.ptr, %add.ptr.i
  br i1 %cmp.not, label %for.end, label %for.body

for.end:                                          ; preds = %for.body, %entry, %_ZN6vectorIPN2dd6solver8equationELb0EjE3endEv.exit
  ret void
}